; ModuleID = '43/1.c'
source_filename = "43/1.c"
target datalayout = "e-m:e-p270:32:32-p271:32:32-p272:64:64-i64:64-f80:128-n8:16:32:64-S128"
target triple = "x86_64-pc-linux-gnu"

@.str = private unnamed_addr constant [3 x i8] c"%d\00", align 1
@.str.1 = private unnamed_addr constant [7 x i8] c"%d %d\0A\00", align 1

; Function Attrs: noinline nounwind uwtable
define dso_local i32 @main() #0 {
  %1 = alloca i32, align 4
  %2 = alloca i32, align 4
  %3 = alloca i32, align 4
  %4 = alloca i32, align 4
  %5 = alloca i32, align 4
  %6 = alloca i32, align 4
  store i32 0, i32* %1, align 4
  %7 = call i32 (i8*, ...) @__isoc99_scanf(i8* getelementptr inbounds ([3 x i8], [3 x i8]* @.str, i64 0, i64 0), i32* %2)
  store i32 3, i32* %3, align 4
  br label %8

8:                                                ; preds = %54, %0
  %9 = load i32, i32* %3, align 4
  %10 = load i32, i32* %2, align 4
  %11 = sdiv i32 %10, 2
  %12 = icmp sle i32 %9, %11
  br i1 %12, label %13, label %57

13:                                               ; preds = %8
  %14 = load i32, i32* %2, align 4
  %15 = load i32, i32* %3, align 4
  %16 = sub nsw i32 %14, %15
  store i32 %16, i32* %5, align 4
  store i32 1, i32* %4, align 4
  store i32 2, i32* %6, align 4
  br label %17

17:                                               ; preds = %28, %13
  %18 = load i32, i32* %6, align 4
  %19 = load i32, i32* %3, align 4
  %20 = icmp slt i32 %18, %19
  br i1 %20, label %21, label %31

21:                                               ; preds = %17
  %22 = load i32, i32* %3, align 4
  %23 = load i32, i32* %6, align 4
  %24 = srem i32 %22, %23
  %25 = icmp eq i32 %24, 0
  br i1 %25, label %26, label %27

26:                                               ; preds = %21
  store i32 0, i32* %4, align 4
  br label %27

27:                                               ; preds = %26, %21
  br label %28

28:                                               ; preds = %27
  %29 = load i32, i32* %6, align 4
  %30 = add nsw i32 %29, 1
  store i32 %30, i32* %6, align 4
  br label %17

31:                                               ; preds = %17
  store i32 2, i32* %6, align 4
  br label %32

32:                                               ; preds = %43, %31
  %33 = load i32, i32* %6, align 4
  %34 = load i32, i32* %5, align 4
  %35 = icmp slt i32 %33, %34
  br i1 %35, label %36, label %46

36:                                               ; preds = %32
  %37 = load i32, i32* %5, align 4
  %38 = load i32, i32* %6, align 4
  %39 = srem i32 %37, %38
  %40 = icmp eq i32 %39, 0
  br i1 %40, label %41, label %42

41:                                               ; preds = %36
  store i32 0, i32* %4, align 4
  br label %42

42:                                               ; preds = %41, %36
  br label %43

43:                                               ; preds = %42
  %44 = load i32, i32* %6, align 4
  %45 = add nsw i32 %44, 1
  store i32 %45, i32* %6, align 4
  br label %32

46:                                               ; preds = %32
  %47 = load i32, i32* %4, align 4
  %48 = icmp eq i32 %47, 1
  br i1 %48, label %49, label %53

49:                                               ; preds = %46
  %50 = load i32, i32* %3, align 4
  %51 = load i32, i32* %5, align 4
  %52 = call i32 (i8*, ...) @printf(i8* getelementptr inbounds ([7 x i8], [7 x i8]* @.str.1, i64 0, i64 0), i32 %50, i32 %51)
  br label %53

53:                                               ; preds = %49, %46
  br label %54

54:                                               ; preds = %53
  %55 = load i32, i32* %3, align 4
  %56 = add nsw i32 %55, 2
  store i32 %56, i32* %3, align 4
  br label %8

57:                                               ; preds = %8
  ret i32 0
}

declare dso_local i32 @__isoc99_scanf(i8*, ...) #1

declare dso_local i32 @printf(i8*, ...) #1


!llvm.module.flags = !{!0}
!llvm.ident = !{!1}

!0 = !{i32 1, !"wchar_size", i32 4}
!1 = !{!"clang version 10.0.0-4ubuntu1 "}
