; ModuleID = 'source-C-CXX/42/1.c'
source_filename = "source-C-CXX/42/1.c"
target datalayout = "e-m:e-p270:32:32-p271:32:32-p272:64:64-i64:64-f80:128-n8:16:32:64-S128"
target triple = "x86_64-pc-linux-gnu"

@.str = private unnamed_addr constant [3 x i8] c"%d\00", align 1
@.str.1 = private unnamed_addr constant [7 x i8] c"%d %d\0A\00", align 1

; Function Attrs: nofree nounwind sspstrong uwtable
define dso_local i32 @main() local_unnamed_addr #0 {
  %1 = alloca i32, align 4
  %2 = bitcast i32* %1 to i8*
  call void @llvm.lifetime.start.p0i8(i64 4, i8* nonnull %2) #3
  %3 = call i32 (i8*, ...) @__isoc99_scanf(i8* getelementptr inbounds ([3 x i8], [3 x i8]* @.str, i64 0, i64 0), i32* nonnull %1)
  %4 = load i32, i32* %1, align 4, !tbaa !5
  %5 = icmp slt i32 %4, 6
  br i1 %5, label %80, label %6

6:                                                ; preds = %0, %74
  %7 = phi i32 [ %79, %74 ], [ 0, %0 ]
  %8 = phi i32 [ %75, %74 ], [ %4, %0 ]
  %9 = phi i32 [ %76, %74 ], [ 3, %0 ]
  %10 = mul nsw i32 %7, -2
  %11 = add i32 %10, -5
  %12 = icmp eq i32 %7, 0
  br i1 %12, label %15, label %13

13:                                               ; preds = %6
  %14 = shl nuw nsw i32 %7, 1
  br label %31

15:                                               ; preds = %6, %31
  %16 = phi i32 [ undef, %6 ], [ %41, %31 ]
  %17 = phi i32 [ 2, %6 ], [ %42, %31 ]
  %18 = phi i32 [ 1, %6 ], [ %41, %31 ]
  %19 = urem i32 %9, %17
  %20 = icmp eq i32 %19, 0
  %21 = select i1 %20, i32 0, i32 %18
  %22 = sub nsw i32 %8, %9
  %23 = icmp sgt i32 %22, 2
  br i1 %23, label %24, label %68

24:                                               ; preds = %15
  %25 = add i32 %8, %11
  %26 = and i32 %25, 1
  %27 = sub i32 6, %10
  %28 = icmp eq i32 %8, %27
  br i1 %28, label %59, label %29

29:                                               ; preds = %24
  %30 = and i32 %25, -2
  br label %45

31:                                               ; preds = %31, %13
  %32 = phi i32 [ 2, %13 ], [ %42, %31 ]
  %33 = phi i32 [ 1, %13 ], [ %41, %31 ]
  %34 = phi i32 [ %14, %13 ], [ %43, %31 ]
  %35 = urem i32 %9, %32
  %36 = icmp eq i32 %35, 0
  %37 = or i32 %32, 1
  %38 = urem i32 %9, %37
  %39 = icmp eq i32 %38, 0
  %40 = select i1 %39, i1 true, i1 %36
  %41 = select i1 %40, i32 0, i32 %33
  %42 = add nuw nsw i32 %32, 2
  %43 = add i32 %34, -2
  %44 = icmp eq i32 %43, 0
  br i1 %44, label %15, label %31, !llvm.loop !9

45:                                               ; preds = %45, %29
  %46 = phi i32 [ 2, %29 ], [ %56, %45 ]
  %47 = phi i32 [ %21, %29 ], [ %55, %45 ]
  %48 = phi i32 [ %30, %29 ], [ %57, %45 ]
  %49 = srem i32 %22, %46
  %50 = icmp eq i32 %49, 0
  %51 = or i32 %46, 1
  %52 = srem i32 %22, %51
  %53 = icmp eq i32 %52, 0
  %54 = select i1 %53, i1 true, i1 %50
  %55 = select i1 %54, i32 0, i32 %47
  %56 = add nuw nsw i32 %46, 2
  %57 = add i32 %48, -2
  %58 = icmp eq i32 %57, 0
  br i1 %58, label %59, label %45, !llvm.loop !11

59:                                               ; preds = %45, %24
  %60 = phi i32 [ undef, %24 ], [ %55, %45 ]
  %61 = phi i32 [ 2, %24 ], [ %56, %45 ]
  %62 = phi i32 [ %21, %24 ], [ %55, %45 ]
  %63 = icmp eq i32 %26, 0
  br i1 %63, label %68, label %64

64:                                               ; preds = %59
  %65 = srem i32 %22, %61
  %66 = icmp eq i32 %65, 0
  %67 = select i1 %66, i32 0, i32 %62
  br label %68

68:                                               ; preds = %64, %59, %15
  %69 = phi i32 [ %21, %15 ], [ %60, %59 ], [ %67, %64 ]
  %70 = icmp eq i32 %69, 1
  br i1 %70, label %71, label %74

71:                                               ; preds = %68
  %72 = call i32 (i8*, ...) @printf(i8* nonnull dereferenceable(1) getelementptr inbounds ([7 x i8], [7 x i8]* @.str.1, i64 0, i64 0), i32 %9, i32 %22)
  %73 = load i32, i32* %1, align 4, !tbaa !5
  br label %74

74:                                               ; preds = %68, %71
  %75 = phi i32 [ %8, %68 ], [ %73, %71 ]
  %76 = add nuw nsw i32 %9, 2
  %77 = sdiv i32 %75, 2
  %78 = icmp sgt i32 %76, %77
  %79 = add i32 %7, 1
  br i1 %78, label %80, label %6, !llvm.loop !12

80:                                               ; preds = %74, %0
  call void @llvm.lifetime.end.p0i8(i64 4, i8* nonnull %2) #3
  ret i32 0
}

; Function Attrs: argmemonly mustprogress nofree nosync nounwind willreturn
declare void @llvm.lifetime.start.p0i8(i64 immarg, i8* nocapture) #1

; Function Attrs: nofree nounwind
declare noundef i32 @__isoc99_scanf(i8* nocapture noundef readonly, ...) local_unnamed_addr #2

; Function Attrs: nofree nounwind
declare noundef i32 @printf(i8* nocapture noundef readonly, ...) local_unnamed_addr #2

; Function Attrs: argmemonly mustprogress nofree nosync nounwind willreturn
declare void @llvm.lifetime.end.p0i8(i64 immarg, i8* nocapture) #1


!llvm.module.flags = !{!0, !1, !2, !3}
!llvm.ident = !{!4}

!0 = !{i32 1, !"wchar_size", i32 4}
!1 = !{i32 7, !"PIC Level", i32 2}
!2 = !{i32 7, !"PIE Level", i32 2}
!3 = !{i32 7, !"uwtable", i32 1}
!4 = !{!"clang version 13.0.0"}
!5 = !{!6, !6, i64 0}
!6 = !{!"int", !7, i64 0}
!7 = !{!"omnipotent char", !8, i64 0}
!8 = !{!"Simple C/C++ TBAA"}
!9 = distinct !{!9, !10}
!10 = !{!"llvm.loop.mustprogress"}
!11 = distinct !{!11, !10}
!12 = distinct !{!12, !10}
